target datalayout = "e-m:e-p270:32:32-p271:32:32-p272:64:64-i64:64-i128:128-f80:128-n8:16:32:64-S128"
target triple = "x86_64-pc-linux-gnu"

%struct.mbedtls_net_context = type { i32 }
%struct.addrinfo = type { i32, i32, i32, i32, i32, ptr, ptr, ptr }

; Function Attrs: nounwind uwtable
define internal i32 @net_prepare() #0 {
  %1 = call ptr @__sysv_signal(i32 noundef 13, ptr noundef inttoptr (i64 1 to ptr)) #7
  ret i32 0
}

; Function Attrs: nounwind uwtable
define hidden i32 @mbedtls_net_connect(ptr noundef %0, ptr noundef %1, ptr noundef %2, i32 noundef %3) #0 {
  %5 = alloca i32, align 4
  %6 = alloca ptr, align 8
  %7 = alloca ptr, align 8
  %8 = alloca ptr, align 8
  %9 = alloca i32, align 4
  %10 = alloca i32, align 4
  %11 = alloca %struct.addrinfo, align 8
  %12 = alloca ptr, align 8
  %13 = alloca ptr, align 8
  %14 = alloca i32, align 4
  store ptr %0, ptr %6, align 8, !tbaa !3
  store ptr %1, ptr %7, align 8, !tbaa !11
  store ptr %2, ptr %8, align 8, !tbaa !11
  store i32 %3, ptr %9, align 4, !tbaa !13
  call void @llvm.lifetime.start.p0(i64 4, ptr %10) #7
  store i32 -110, ptr %10, align 4, !tbaa !13
  call void @llvm.lifetime.start.p0(i64 48, ptr %11) #7
  call void @llvm.lifetime.start.p0(i64 8, ptr %12) #7
  call void @llvm.lifetime.start.p0(i64 8, ptr %13) #7
  %15 = call i32 @net_prepare()
  store i32 %15, ptr %10, align 4, !tbaa !13
  %16 = icmp ne i32 %15, 0
  br i1 %16, label %17, label %19

17:                                               ; preds = %4
  %18 = load i32, ptr %10, align 4, !tbaa !13
  store i32 %18, ptr %5, align 4
  store i32 1, ptr %14, align 4
  br label %82

19:                                               ; preds = %4
  call void @llvm.memset.p0.i64(ptr align 8 %11, i8 0, i64 48, i1 false)
  %20 = getelementptr inbounds nuw %struct.addrinfo, ptr %11, i32 0, i32 1
  store i32 0, ptr %20, align 4, !tbaa !14
  %21 = load i32, ptr %9, align 4, !tbaa !13
  %22 = icmp eq i32 %21, 1
  %23 = select i1 %22, i32 2, i32 1
  %24 = getelementptr inbounds nuw %struct.addrinfo, ptr %11, i32 0, i32 2
  store i32 %23, ptr %24, align 8, !tbaa !18
  %25 = load i32, ptr %9, align 4, !tbaa !13
  %26 = icmp eq i32 %25, 1
  %27 = select i1 %26, i32 17, i32 6
  %28 = getelementptr inbounds nuw %struct.addrinfo, ptr %11, i32 0, i32 3
  store i32 %27, ptr %28, align 4, !tbaa !19
  %29 = load ptr, ptr %7, align 8, !tbaa !11
  %30 = load ptr, ptr %8, align 8, !tbaa !11
  %31 = call i32 @getaddrinfo(ptr noundef %29, ptr noundef %30, ptr noundef %11, ptr noundef %12)
  %32 = icmp ne i32 %31, 0
  br i1 %32, label %33, label %34

33:                                               ; preds = %19
  store i32 -82, ptr %5, align 4
  store i32 1, ptr %14, align 4
  br label %82

34:                                               ; preds = %19
  store i32 -82, ptr %10, align 4, !tbaa !13
  %35 = load ptr, ptr %12, align 8, !tbaa !20
  store ptr %35, ptr %13, align 8, !tbaa !20
  br label %36

36:                                               ; preds = %75, %34
  %37 = load ptr, ptr %13, align 8, !tbaa !20
  %38 = icmp ne ptr %37, null
  br i1 %38, label %39, label %79

39:                                               ; preds = %36
  %40 = load ptr, ptr %13, align 8, !tbaa !20
  %41 = getelementptr inbounds nuw %struct.addrinfo, ptr %40, i32 0, i32 1
  %42 = load i32, ptr %41, align 4, !tbaa !14
  %43 = load ptr, ptr %13, align 8, !tbaa !20
  %44 = getelementptr inbounds nuw %struct.addrinfo, ptr %43, i32 0, i32 2
  %45 = load i32, ptr %44, align 8, !tbaa !18
  %46 = load ptr, ptr %13, align 8, !tbaa !20
  %47 = getelementptr inbounds nuw %struct.addrinfo, ptr %46, i32 0, i32 3
  %48 = load i32, ptr %47, align 4, !tbaa !19
  %49 = call i32 @socket(i32 noundef %42, i32 noundef %45, i32 noundef %48) #7
  %50 = load ptr, ptr %6, align 8, !tbaa !3
  %51 = getelementptr inbounds nuw %struct.mbedtls_net_context, ptr %50, i32 0, i32 0
  store i32 %49, ptr %51, align 4, !tbaa !8
  %52 = load ptr, ptr %6, align 8, !tbaa !3
  %53 = getelementptr inbounds nuw %struct.mbedtls_net_context, ptr %52, i32 0, i32 0
  %54 = load i32, ptr %53, align 4, !tbaa !8
  %55 = icmp slt i32 %54, 0
  br i1 %55, label %56, label %57

56:                                               ; preds = %39
  store i32 -66, ptr %10, align 4, !tbaa !13
  br label %75

57:                                               ; preds = %39
  %58 = load ptr, ptr %6, align 8, !tbaa !3
  %59 = getelementptr inbounds nuw %struct.mbedtls_net_context, ptr %58, i32 0, i32 0
  %60 = load i32, ptr %59, align 4, !tbaa !8
  %61 = load ptr, ptr %13, align 8, !tbaa !20
  %62 = getelementptr inbounds nuw %struct.addrinfo, ptr %61, i32 0, i32 5
  %63 = load ptr, ptr %62, align 8, !tbaa !21
  %64 = load ptr, ptr %13, align 8, !tbaa !20
  %65 = getelementptr inbounds nuw %struct.addrinfo, ptr %64, i32 0, i32 4
  %66 = load i32, ptr %65, align 8, !tbaa !22
  %67 = call i32 @connect(i32 noundef %60, ptr noundef %63, i32 noundef %66)
  %68 = icmp eq i32 %67, 0
  br i1 %68, label %69, label %70

69:                                               ; preds = %57
  store i32 0, ptr %10, align 4, !tbaa !13
  br label %79

70:                                               ; preds = %57
  %71 = load ptr, ptr %6, align 8, !tbaa !3
  %72 = getelementptr inbounds nuw %struct.mbedtls_net_context, ptr %71, i32 0, i32 0
  %73 = load i32, ptr %72, align 4, !tbaa !8
  %74 = call i32 @close(i32 noundef %73)
  store i32 -68, ptr %10, align 4, !tbaa !13
  br label %75

75:                                               ; preds = %70, %56
  %76 = load ptr, ptr %13, align 8, !tbaa !20
  %77 = getelementptr inbounds nuw %struct.addrinfo, ptr %76, i32 0, i32 7
  %78 = load ptr, ptr %77, align 8, !tbaa !23
  store ptr %78, ptr %13, align 8, !tbaa !20
  br label %36, !llvm.loop !24

79:                                               ; preds = %69, %36
  %80 = load ptr, ptr %12, align 8, !tbaa !20
  call void @freeaddrinfo(ptr noundef %80) #7
  %81 = load i32, ptr %10, align 4, !tbaa !13
  store i32 %81, ptr %5, align 4
  store i32 1, ptr %14, align 4
  br label %82

82:                                               ; preds = %79, %33, %17
  call void @llvm.lifetime.end.p0(i64 8, ptr %13) #7
  call void @llvm.lifetime.end.p0(i64 8, ptr %12) #7
  call void @llvm.lifetime.end.p0(i64 48, ptr %11) #7
  call void @llvm.lifetime.end.p0(i64 4, ptr %10) #7
  %83 = load i32, ptr %5, align 4
  ret i32 %83
}