; Function Attrs: nounwind uwtable
define hidden range(i32 -82, 1) i32 @mbedtls_net_connect(ptr noundef captures(none) %0, ptr noundef %1, ptr noundef %2, i32 noundef %3) local_unnamed_addr #1 {
  %5 = alloca %struct.addrinfo, align 8
  %6 = alloca ptr, align 8
  call void @llvm.lifetime.start.p0(i64 48, ptr nonnull %5) #9
  call void @llvm.lifetime.start.p0(i64 8, ptr nonnull %6) #9
  %7 = tail call ptr @__sysv_signal(i32 noundef 13, ptr noundef nonnull inttoptr (i64 1 to ptr)) #9
  %8 = icmp eq i32 %3, 1
  %9 = select i1 %8, i32 2, i32 1
  %10 = getelementptr inbounds nuw i8, ptr %5, i64 8
  call void @llvm.memset.p0.i64(ptr noundef nonnull align 8 dereferenceable(48) %5, i8 0, i64 48, i1 false)
  store i32 %9, ptr %10, align 8, !tbaa !8
  %11 = select i1 %8, i32 17, i32 6
  %12 = getelementptr inbounds nuw i8, ptr %5, i64 12
  store i32 %11, ptr %12, align 4, !tbaa !14
  %13 = call i32 @getaddrinfo(ptr noundef %1, ptr noundef %2, ptr noundef nonnull %5, ptr noundef nonnull %6) #9
  %.not = icmp eq i32 %13, 0
  br i1 %.not, label %.preheader, label %35

.preheader:                                       ; preds = %4
  %.022 = load ptr, ptr %6, align 8, !tbaa !15
  %.not2123 = icmp eq ptr %.022, null
  br i1 %.not2123, label %._crit_edge, label %.lr.ph

.lr.ph:                                           ; preds = %.preheader, %32
  %.024 = phi ptr [ %.0, %32 ], [ %.022, %.preheader ]
  %14 = getelementptr inbounds nuw i8, ptr %.024, i64 4
  %15 = load i32, ptr %14, align 4, !tbaa !16
  %16 = getelementptr inbounds nuw i8, ptr %.024, i64 8
  %17 = load i32, ptr %16, align 8, !tbaa !8
  %18 = getelementptr inbounds nuw i8, ptr %.024, i64 12
  %19 = load i32, ptr %18, align 4, !tbaa !14
  %20 = call i32 @socket(i32 noundef %15, i32 noundef %17, i32 noundef %19) #9
  store i32 %20, ptr %0, align 4, !tbaa !3
  %21 = icmp slt i32 %20, 0
  br i1 %21, label %32, label %22

22:                                               ; preds = %.lr.ph
  %23 = getelementptr inbounds nuw i8, ptr %.024, i64 24
  %24 = load ptr, ptr %23, align 8, !tbaa !17
  %25 = getelementptr inbounds nuw i8, ptr %.024, i64 16
  %26 = load i32, ptr %25, align 8, !tbaa !18
  %27 = call i32 @connect(i32 noundef %20, ptr noundef %24, i32 noundef %26) #9
  %28 = icmp eq i32 %27, 0
  br i1 %28, label %._crit_edge.loopexit, label %29

29:                                               ; preds = %22
  %30 = load i32, ptr %0, align 4, !tbaa !3
  %31 = call i32 @close(i32 noundef %30) #9
  br label %32

32:                                               ; preds = %.lr.ph, %29
  %.2 = phi i32 [ -68, %29 ], [ -66, %.lr.ph ]
  %33 = getelementptr inbounds nuw i8, ptr %.024, i64 40
  %.0 = load ptr, ptr %33, align 8, !tbaa !15
  %.not21 = icmp eq ptr %.0, null
  br i1 %.not21, label %._crit_edge.loopexit, label %.lr.ph, !llvm.loop !19

._crit_edge.loopexit:                             ; preds = %22, %32
  %.1.ph = phi i32 [ %.2, %32 ], [ 0, %22 ]
  %.pre = load ptr, ptr %6, align 8, !tbaa !15
  br label %._crit_edge

._crit_edge:                                      ; preds = %._crit_edge.loopexit, %.preheader
  %34 = phi ptr [ null, %.preheader ], [ %.pre, %._crit_edge.loopexit ]
  %.1 = phi i32 [ -82, %.preheader ], [ %.1.ph, %._crit_edge.loopexit ]
  call void @freeaddrinfo(ptr noundef %34) #9
  br label %35

35:                                               ; preds = %4, %._crit_edge
  %.018 = phi i32 [ %.1, %._crit_edge ], [ -82, %4 ]
  call void @llvm.lifetime.end.p0(i64 8, ptr nonnull %6) #9
  call void @llvm.lifetime.end.p0(i64 48, ptr nonnull %5) #9
  ret i32 %.018
}